#include <math.h>
#include <stdio.h>
#include <stdlib.h>
#include <string.h>

/*????????????????????????
a)  ???????????????????
b)  ???????????
c)  ??????????
d)  ?????????
??????????????????????????
 */
int shuzu1[100],shuzu2[100];
int n1,n2;
void scan()
{
    int i;
    scanf("%d%d",&n1,&n2);
    for(i=0;i<n1;i++)
    scanf("%d",&shuzu1[i]);
    for(i=0;i<n2;i++)
    scanf("%d",&shuzu2[i]);
}
void paixu(int shuzu[],int n)
{
    int min,i,j,temp;
    for(i=0;i<n;i++)
    {
        min=i;
        for(j=i+1;j<n;j++)
        {
            if(shuzu[j]<shuzu[min])
            min=j;
        }
        temp=shuzu[i];
        shuzu[i]=shuzu[min];
        shuzu[min]=temp;
    }
}
void hebing(int shuzu1[],int shuzu2[],int n1,int n2)
{
    int i;
    for(i=0;i<n1;i++)
    printf("%d ",shuzu1[i]);
    for(i=0;i<n2-1;i++)
    printf("%d ",shuzu2[i]);
    printf("%d",shuzu2[i]);
}
void main()
{
    scan();
    paixu(shuzu1,n1);
    paixu(shuzu2,n2);
    hebing(shuzu1,shuzu2,n1,n2);
}
