target datalayout = "e-m:e-p270:32:32-p271:32:32-p272:64:64-i64:64-f80:128-n8:16:32:64-S128"
target triple = "x86_64-pc-linux-gnu"

@.str = private unnamed_addr constant [5 x i8] c"%d%d\00", align 1
@n1 = common dso_local global i32 0, align 4
@n2 = common dso_local global i32 0, align 4
@.str.1 = private unnamed_addr constant [3 x i8] c"%d\00", align 1
@shuzu1 = common dso_local global [100 x i32] zeroinitializer, align 16
@shuzu2 = common dso_local global [100 x i32] zeroinitializer, align 16
@.str.2 = private unnamed_addr constant [4 x i8] c"%d \00", align 1

; Function Attrs: noinline nounwind uwtable
define dso_local void @scan() #0 {
  %1 = alloca i32, align 4
  %2 = call i32 (i8*, ...) @__isoc99_scanf(i8* getelementptr inbounds ([5 x i8], [5 x i8]* @.str, i64 0, i64 0), i32* @n1, i32* @n2)
  store i32 0, i32* %1, align 4
  br label %3

3:                                                ; preds = %12, %0
  %4 = load i32, i32* %1, align 4
  %5 = load i32, i32* @n1, align 4
  %6 = icmp slt i32 %4, %5
  br i1 %6, label %7, label %15

7:                                                ; preds = %3
  %8 = load i32, i32* %1, align 4
  %9 = sext i32 %8 to i64
  %10 = getelementptr inbounds [100 x i32], [100 x i32]* @shuzu1, i64 0, i64 %9
  %11 = call i32 (i8*, ...) @__isoc99_scanf(i8* getelementptr inbounds ([3 x i8], [3 x i8]* @.str.1, i64 0, i64 0), i32* %10)
  br label %12

12:                                               ; preds = %7
  %13 = load i32, i32* %1, align 4
  %14 = add nsw i32 %13, 1
  store i32 %14, i32* %1, align 4
  br label %3

15:                                               ; preds = %3
  store i32 0, i32* %1, align 4
  br label %16

16:                                               ; preds = %25, %15
  %17 = load i32, i32* %1, align 4
  %18 = load i32, i32* @n2, align 4
  %19 = icmp slt i32 %17, %18
  br i1 %19, label %20, label %28

20:                                               ; preds = %16
  %21 = load i32, i32* %1, align 4
  %22 = sext i32 %21 to i64
  %23 = getelementptr inbounds [100 x i32], [100 x i32]* @shuzu2, i64 0, i64 %22
  %24 = call i32 (i8*, ...) @__isoc99_scanf(i8* getelementptr inbounds ([3 x i8], [3 x i8]* @.str.1, i64 0, i64 0), i32* %23)
  br label %25

25:                                               ; preds = %20
  %26 = load i32, i32* %1, align 4
  %27 = add nsw i32 %26, 1
  store i32 %27, i32* %1, align 4
  br label %16

28:                                               ; preds = %16
  ret void
}

; Function Attrs: noinline nounwind uwtable
define dso_local void @paixu(i32* %0, i32 %1) #0 {
  %3 = alloca i32*, align 8
  %4 = alloca i32, align 4
  %5 = alloca i32, align 4
  %6 = alloca i32, align 4
  %7 = alloca i32, align 4
  %8 = alloca i32, align 4
  store i32* %0, i32** %3, align 8
  store i32 %1, i32* %4, align 4
  store i32 0, i32* %6, align 4
  br label %9

9:                                                ; preds = %59, %2
  %10 = load i32, i32* %6, align 4
  %11 = load i32, i32* %4, align 4
  %12 = icmp slt i32 %10, %11
  br i1 %12, label %13, label %62

13:                                               ; preds = %9
  %14 = load i32, i32* %6, align 4
  store i32 %14, i32* %5, align 4
  %15 = load i32, i32* %6, align 4
  %16 = add nsw i32 %15, 1
  store i32 %16, i32* %7, align 4
  br label %17

17:                                               ; preds = %36, %13
  %18 = load i32, i32* %7, align 4
  %19 = load i32, i32* %4, align 4
  %20 = icmp slt i32 %18, %19
  br i1 %20, label %21, label %39

21:                                               ; preds = %17
  %22 = load i32*, i32** %3, align 8
  %23 = load i32, i32* %7, align 4
  %24 = sext i32 %23 to i64
  %25 = getelementptr inbounds i32, i32* %22, i64 %24
  %26 = load i32, i32* %25, align 4
  %27 = load i32*, i32** %3, align 8
  %28 = load i32, i32* %5, align 4
  %29 = sext i32 %28 to i64
  %30 = getelementptr inbounds i32, i32* %27, i64 %29
  %31 = load i32, i32* %30, align 4
  %32 = icmp slt i32 %26, %31
  br i1 %32, label %33, label %35

33:                                               ; preds = %21
  %34 = load i32, i32* %7, align 4
  store i32 %34, i32* %5, align 4
  br label %35

35:                                               ; preds = %33, %21
  br label %36

36:                                               ; preds = %35
  %37 = load i32, i32* %7, align 4
  %38 = add nsw i32 %37, 1
  store i32 %38, i32* %7, align 4
  br label %17

39:                                               ; preds = %17
  %40 = load i32*, i32** %3, align 8
  %41 = load i32, i32* %6, align 4
  %42 = sext i32 %41 to i64
  %43 = getelementptr inbounds i32, i32* %40, i64 %42
  %44 = load i32, i32* %43, align 4
  store i32 %44, i32* %8, align 4
  %45 = load i32*, i32** %3, align 8
  %46 = load i32, i32* %5, align 4
  %47 = sext i32 %46 to i64
  %48 = getelementptr inbounds i32, i32* %45, i64 %47
  %49 = load i32, i32* %48, align 4
  %50 = load i32*, i32** %3, align 8
  %51 = load i32, i32* %6, align 4
  %52 = sext i32 %51 to i64
  %53 = getelementptr inbounds i32, i32* %50, i64 %52
  store i32 %49, i32* %53, align 4
  %54 = load i32, i32* %8, align 4
  %55 = load i32*, i32** %3, align 8
  %56 = load i32, i32* %5, align 4
  %57 = sext i32 %56 to i64
  %58 = getelementptr inbounds i32, i32* %55, i64 %57
  store i32 %54, i32* %58, align 4
  br label %59

59:                                               ; preds = %39
  %60 = load i32, i32* %6, align 4
  %61 = add nsw i32 %60, 1
  store i32 %61, i32* %6, align 4
  br label %9

62:                                               ; preds = %9
  ret void
}

; Function Attrs: noinline nounwind uwtable
define dso_local void @hebing(i32* %0, i32* %1, i32 %2, i32 %3) #0 {
  %5 = alloca i32*, align 8
  %6 = alloca i32*, align 8
  %7 = alloca i32, align 4
  %8 = alloca i32, align 4
  %9 = alloca i32, align 4
  store i32* %0, i32** %5, align 8
  store i32* %1, i32** %6, align 8
  store i32 %2, i32* %7, align 4
  store i32 %3, i32* %8, align 4
  store i32 0, i32* %9, align 4
  br label %10

10:                                               ; preds = %21, %4
  %11 = load i32, i32* %9, align 4
  %12 = load i32, i32* %7, align 4
  %13 = icmp slt i32 %11, %12
  br i1 %13, label %14, label %24

14:                                               ; preds = %10
  %15 = load i32*, i32** %5, align 8
  %16 = load i32, i32* %9, align 4
  %17 = sext i32 %16 to i64
  %18 = getelementptr inbounds i32, i32* %15, i64 %17
  %19 = load i32, i32* %18, align 4
  %20 = call i32 (i8*, ...) @printf(i8* getelementptr inbounds ([4 x i8], [4 x i8]* @.str.2, i64 0, i64 0), i32 %19)
  br label %21

21:                                               ; preds = %14
  %22 = load i32, i32* %9, align 4
  %23 = add nsw i32 %22, 1
  store i32 %23, i32* %9, align 4
  br label %10

24:                                               ; preds = %10
  store i32 0, i32* %9, align 4
  br label %25

25:                                               ; preds = %37, %24
  %26 = load i32, i32* %9, align 4
  %27 = load i32, i32* %8, align 4
  %28 = sub nsw i32 %27, 1
  %29 = icmp slt i32 %26, %28
  br i1 %29, label %30, label %40

30:                                               ; preds = %25
  %31 = load i32*, i32** %6, align 8
  %32 = load i32, i32* %9, align 4
  %33 = sext i32 %32 to i64
  %34 = getelementptr inbounds i32, i32* %31, i64 %33
  %35 = load i32, i32* %34, align 4
  %36 = call i32 (i8*, ...) @printf(i8* getelementptr inbounds ([4 x i8], [4 x i8]* @.str.2, i64 0, i64 0), i32 %35)
  br label %37

37:                                               ; preds = %30
  %38 = load i32, i32* %9, align 4
  %39 = add nsw i32 %38, 1
  store i32 %39, i32* %9, align 4
  br label %25

40:                                               ; preds = %25
  %41 = load i32*, i32** %6, align 8
  %42 = load i32, i32* %9, align 4
  %43 = sext i32 %42 to i64
  %44 = getelementptr inbounds i32, i32* %41, i64 %43
  %45 = load i32, i32* %44, align 4
  %46 = call i32 (i8*, ...) @printf(i8* getelementptr inbounds ([3 x i8], [3 x i8]* @.str.1, i64 0, i64 0), i32 %45)
  ret void
}

; Function Attrs: noinline nounwind uwtable
define dso_local void @main() #0 {
  call void @scan()
  %1 = load i32, i32* @n1, align 4
  call void @paixu(i32* getelementptr inbounds ([100 x i32], [100 x i32]* @shuzu1, i64 0, i64 0), i32 %1)
  %2 = load i32, i32* @n2, align 4
  call void @paixu(i32* getelementptr inbounds ([100 x i32], [100 x i32]* @shuzu2, i64 0, i64 0), i32 %2)
  %3 = load i32, i32* @n1, align 4
  %4 = load i32, i32* @n2, align 4
  call void @hebing(i32* getelementptr inbounds ([100 x i32], [100 x i32]* @shuzu1, i64 0, i64 0), i32* getelementptr inbounds ([100 x i32], [100 x i32]* @shuzu2, i64 0, i64 0), i32 %3, i32 %4)
  ret void
}